; Function Attrs: nounwind uwtable
define dso_local i32 @topology_g_topology_free(ptr noundef %0) local_unnamed_addr #0 {
  %2 = alloca ptr, align 8
  store ptr %0, ptr %2, align 8
  %.not = icmp eq ptr %0, null
  br i1 %.not, label %9, label %3

3:                                                ; preds = %1
  %4 = load ptr, ptr %0, align 8
  %.not3 = icmp eq ptr %4, null
  br i1 %.not3, label %8, label %5

5:                                                ; preds = %3
  %6 = load ptr, ptr getelementptr inbounds nuw (i8, ptr @ops, i64 64), align 8
  %7 = tail call i32 %6(ptr noundef nonnull %4) #9
  br label %8

8:                                                ; preds = %5, %3
  %.1 = phi i32 [ %7, %5 ], [ 0, %3 ]
  call void @slurm_xfree(ptr noundef nonnull %2) #9
  br label %9

9:                                                ; preds = %8, %1
  %.0 = phi i32 [ %.1, %8 ], [ 0, %1 ]
  ret i32 %.0
}